target datalayout = "e-m:e-p270:32:32-p271:32:32-p272:64:64-i64:64-i128:128-f80:128-n8:16:32:64-S128"
target triple = "x86_64-pc-linux-gnu"

@_ZL12fixedOffsets = internal constant [7 x i32] [i32 192, i32 592, i32 880, i32 1328, i32 12352, i32 12448, i32 65376], align 16

; Function Attrs: mustprogress nounwind uwtable
define internal noundef i32 @_ZL16getDynamicOffsetjPj(i32 noundef %0, ptr noundef %1) #1 {
  %3 = alloca i32, align 4
  %4 = alloca i32, align 4
  %5 = alloca ptr, align 8
  %6 = alloca i32, align 4
  %7 = alloca i32, align 4
  store i32 %0, ptr %4, align 4, !tbaa !52
  store ptr %1, ptr %5, align 8, !tbaa !60
  call void @llvm.lifetime.start.p0(i64 4, ptr %6) #7
  store i32 0, ptr %6, align 4, !tbaa !52
  br label %8

8:                                                ; preds = %28, %2
  %9 = load i32, ptr %6, align 4, !tbaa !52
  %10 = icmp slt i32 %9, 7
  br i1 %10, label %11, label %31

11:                                               ; preds = %8
  %12 = load i32, ptr %4, align 4, !tbaa !52
  %13 = load i32, ptr %6, align 4, !tbaa !52
  %14 = sext i32 %13 to i64
  %15 = getelementptr inbounds [7 x i32], ptr @_ZL12fixedOffsets, i64 0, i64 %14
  %16 = load i32, ptr %15, align 4, !tbaa !52
  %17 = sub i32 %12, %16
  %18 = icmp ule i32 %17, 127
  br i1 %18, label %19, label %27

19:                                               ; preds = %11
  %20 = load i32, ptr %6, align 4, !tbaa !52
  %21 = sext i32 %20 to i64
  %22 = getelementptr inbounds [7 x i32], ptr @_ZL12fixedOffsets, i64 0, i64 %21
  %23 = load i32, ptr %22, align 4, !tbaa !52
  %24 = load ptr, ptr %5, align 8, !tbaa !60
  store i32 %23, ptr %24, align 4, !tbaa !52
  %25 = load i32, ptr %6, align 4, !tbaa !52
  %26 = add nsw i32 249, %25
  store i32 %26, ptr %3, align 4
  store i32 1, ptr %7, align 4
  br label %69

27:                                               ; preds = %11
  br label %28

28:                                               ; preds = %27
  %29 = load i32, ptr %6, align 4, !tbaa !52
  %30 = add nsw i32 %29, 1
  store i32 %30, ptr %6, align 4, !tbaa !52
  br label %8, !llvm.loop !85

31:                                               ; preds = %8
  %32 = load i32, ptr %4, align 4, !tbaa !52
  %33 = icmp ult i32 %32, 128
  br i1 %33, label %34, label %35

34:                                               ; preds = %31
  store i32 -1, ptr %3, align 4
  store i32 1, ptr %7, align 4
  br label %69

35:                                               ; preds = %31
  %36 = load i32, ptr %4, align 4, !tbaa !52
  %37 = icmp ult i32 %36, 13312
  br i1 %37, label %46, label %38

38:                                               ; preds = %35
  %39 = load i32, ptr %4, align 4, !tbaa !52
  %40 = sub i32 %39, 65536
  %41 = icmp ult i32 %40, 16384
  br i1 %41, label %46, label %42

42:                                               ; preds = %38
  %43 = load i32, ptr %4, align 4, !tbaa !52
  %44 = sub i32 %43, 118784
  %45 = icmp ule i32 %44, 12287
  br i1 %45, label %46, label %52

46:                                               ; preds = %42, %38, %35
  %47 = load i32, ptr %4, align 4, !tbaa !52
  %48 = and i32 %47, 2147483520
  %49 = load ptr, ptr %5, align 8, !tbaa !60
  store i32 %48, ptr %49, align 4, !tbaa !52
  %50 = load i32, ptr %4, align 4, !tbaa !52
  %51 = lshr i32 %50, 7
  store i32 %51, ptr %3, align 4
  store i32 1, ptr %7, align 4
  br label %69

52:                                               ; preds = %42
  %53 = load i32, ptr %4, align 4, !tbaa !52
  %54 = icmp ule i32 57344, %53
  br i1 %54, label %55, label %68

55:                                               ; preds = %52
  %56 = load i32, ptr %4, align 4, !tbaa !52
  %57 = icmp ne i32 %56, 65279
  br i1 %57, label %58, label %68

58:                                               ; preds = %55
  %59 = load i32, ptr %4, align 4, !tbaa !52
  %60 = icmp ult i32 %59, 65520
  br i1 %60, label %61, label %68

61:                                               ; preds = %58
  %62 = load i32, ptr %4, align 4, !tbaa !52
  %63 = and i32 %62, 2147483520
  %64 = load ptr, ptr %5, align 8, !tbaa !60
  store i32 %63, ptr %64, align 4, !tbaa !52
  %65 = load i32, ptr %4, align 4, !tbaa !52
  %66 = sub i32 %65, 44032
  %67 = lshr i32 %66, 7
  store i32 %67, ptr %3, align 4
  store i32 1, ptr %7, align 4
  br label %69

68:                                               ; preds = %58, %55, %52
  store i32 -1, ptr %3, align 4
  store i32 1, ptr %7, align 4
  br label %69

69:                                               ; preds = %68, %61, %46, %34, %19
  call void @llvm.lifetime.end.p0(i64 4, ptr %6) #7
  %70 = load i32, ptr %3, align 4
  ret i32 %70
}