; Function Attrs: mustprogress nofree norecurse nosync nounwind memory(argmem: write) uwtable
define internal fastcc noundef range(i32 -1, 1024) i32 @_ZL16getDynamicOffsetjPj(i32 noundef range(i32 -2147483648, 2090869760) %0, ptr noundef nonnull writeonly captures(none) %1) unnamed_addr #9 {
  br label %3

3:                                                ; preds = %2, %11
  %indvars.iv = phi i64 [ 0, %2 ], [ %indvars.iv.next, %11 ]
  %4 = getelementptr inbounds nuw [7 x i32], ptr @_ZL12fixedOffsets, i64 0, i64 %indvars.iv
  %5 = load i32, ptr %4, align 4, !tbaa !44
  %6 = sub i32 %0, %5
  %7 = icmp ult i32 %6, 128
  br i1 %7, label %8, label %11

8:                                                ; preds = %3
  %9 = trunc nuw nsw i64 %indvars.iv to i32
  store i32 %5, ptr %1, align 4, !tbaa !44
  %10 = add nuw nsw i32 %9, 249
  br label %31

11:                                               ; preds = %3
  %indvars.iv.next = add nuw nsw i64 %indvars.iv, 1
  %exitcond.not = icmp eq i64 %indvars.iv.next, 7
  br i1 %exitcond.not, label %12, label %3, !llvm.loop !65

12:                                               ; preds = %11
  %13 = icmp ult i32 %0, 128
  br i1 %13, label %31, label %14

14:                                               ; preds = %12
  %15 = icmp ult i32 %0, 13312
  %16 = and i32 %0, -16384
  %17 = icmp eq i32 %16, 65536
  %or.cond = or i1 %15, %17
  %18 = add i32 %0, -118784
  %19 = icmp ult i32 %18, 12288
  %or.cond27 = or i1 %19, %or.cond
  br i1 %or.cond27, label %20, label %23

20:                                               ; preds = %14
  %21 = and i32 %0, 130944
  store i32 %21, ptr %1, align 4, !tbaa !44
  %22 = lshr i32 %0, 7
  br label %31

23:                                               ; preds = %14
  %24 = icmp ne i32 %0, 65279
  %25 = add i32 %0, -57344
  %26 = icmp ult i32 %25, 8176
  %or.cond3 = and i1 %24, %26
  br i1 %or.cond3, label %27, label %31

27:                                               ; preds = %23
  %28 = and i32 %0, 65408
  store i32 %28, ptr %1, align 4, !tbaa !44
  %29 = add nsw i32 %0, -44032
  %30 = lshr i32 %29, 7
  br label %31

31:                                               ; preds = %23, %12, %27, %20, %8
  %.023 = phi i32 [ %10, %8 ], [ %22, %20 ], [ %30, %27 ], [ -1, %12 ], [ -1, %23 ]
  ret i32 %.023
}